target datalayout = "e-m:e-p270:32:32-p271:32:32-p272:64:64-i64:64-i128:128-f80:128-n8:16:32:64-S128"
target triple = "x86_64-unknown-linux-gnu"

%struct.ReplayGainFilter = type { i64, i32, [11 x float], [11 x float], [3 x float], [3 x float] }

; Function Attrs: nounwind sspstrong uwtable
define internal ptr @CreateGainFilter(i64 noundef %samplefreq) #0 {
entry:
  %retval = alloca ptr, align 8
  %samplefreq.addr = alloca i64, align 8
  %i = alloca i32, align 4
  %maxrate = alloca i64, align 8
  %downsample = alloca i32, align 4
  %gainfilter = alloca ptr, align 8
  store i64 %samplefreq, ptr %samplefreq.addr, align 8
  store i64 0, ptr %maxrate, align 8
  store i32 1, ptr %downsample, align 4
  %call = call noalias ptr @malloc(i64 noundef 128) #8
  store ptr %call, ptr %gainfilter, align 8
  %0 = load ptr, ptr %gainfilter, align 8
  %tobool = icmp ne ptr %0, null
  br i1 %tobool, label %if.end, label %if.then

if.then:                                          ; preds = %entry
  store ptr null, ptr %retval, align 8
  br label %return

if.end:                                           ; preds = %entry
  br label %while.body

while.body:                                       ; preds = %while.end, %if.end
  store i32 0, ptr %i, align 4
  br label %for.cond

for.cond:                                         ; preds = %for.inc, %while.body
  %1 = load i32, ptr %i, align 4
  %conv = zext i32 %1 to i64
  %cmp = icmp ult i64 %conv, 13
  br i1 %cmp, label %for.body, label %for.end

for.body:                                         ; preds = %for.cond
  %2 = load i64, ptr %maxrate, align 8
  %3 = load i32, ptr %i, align 4
  %idxprom = zext i32 %3 to i64
  %arrayidx = getelementptr inbounds [13 x %struct.ReplayGainFilter], ptr @ReplayGainFilters, i64 0, i64 %idxprom
  %rate = getelementptr inbounds %struct.ReplayGainFilter, ptr %arrayidx, i32 0, i32 0
  %4 = load i64, ptr %rate, align 16
  %cmp2 = icmp slt i64 %2, %4
  br i1 %cmp2, label %if.then4, label %if.end8

if.then4:                                         ; preds = %for.body
  %5 = load i32, ptr %i, align 4
  %idxprom5 = zext i32 %5 to i64
  %arrayidx6 = getelementptr inbounds [13 x %struct.ReplayGainFilter], ptr @ReplayGainFilters, i64 0, i64 %idxprom5
  %rate7 = getelementptr inbounds %struct.ReplayGainFilter, ptr %arrayidx6, i32 0, i32 0
  %6 = load i64, ptr %rate7, align 16
  store i64 %6, ptr %maxrate, align 8
  br label %if.end8

if.end8:                                          ; preds = %if.then4, %for.body
  %7 = load i32, ptr %i, align 4
  %idxprom9 = zext i32 %7 to i64
  %arrayidx10 = getelementptr inbounds [13 x %struct.ReplayGainFilter], ptr @ReplayGainFilters, i64 0, i64 %idxprom9
  %rate11 = getelementptr inbounds %struct.ReplayGainFilter, ptr %arrayidx10, i32 0, i32 0
  %8 = load i64, ptr %rate11, align 16
  %9 = load i64, ptr %samplefreq.addr, align 8
  %cmp12 = icmp eq i64 %8, %9
  br i1 %cmp12, label %if.then14, label %if.end18

if.then14:                                        ; preds = %if.end8
  %10 = load ptr, ptr %gainfilter, align 8
  %11 = load i32, ptr %i, align 4
  %idxprom15 = zext i32 %11 to i64
  %arrayidx16 = getelementptr inbounds [13 x %struct.ReplayGainFilter], ptr @ReplayGainFilters, i64 0, i64 %idxprom15
  call void @llvm.memcpy.p0.p0.i64(ptr align 8 %10, ptr align 16 %arrayidx16, i64 128, i1 false)
  %12 = load i32, ptr %downsample, align 4
  %13 = load ptr, ptr %gainfilter, align 8
  %downsample17 = getelementptr inbounds %struct.ReplayGainFilter, ptr %13, i32 0, i32 1
  store i32 %12, ptr %downsample17, align 8
  %14 = load ptr, ptr %gainfilter, align 8
  store ptr %14, ptr %retval, align 8
  br label %return

if.end18:                                         ; preds = %if.end8
  br label %for.inc

for.inc:                                          ; preds = %if.end18
  %15 = load i32, ptr %i, align 4
  %inc = add i32 %15, 1
  store i32 %inc, ptr %i, align 4
  br label %for.cond, !llvm.loop !5

for.end:                                          ; preds = %for.cond
  %16 = load i64, ptr %samplefreq.addr, align 8
  %17 = load i64, ptr %maxrate, align 8
  %cmp19 = icmp slt i64 %16, %17
  br i1 %cmp19, label %if.then21, label %if.end22

if.then21:                                        ; preds = %for.end
  br label %while.end27

if.end22:                                         ; preds = %for.end
  br label %while.cond23

while.cond23:                                     ; preds = %while.body26, %if.end22
  %18 = load i64, ptr %samplefreq.addr, align 8
  %19 = load i64, ptr %maxrate, align 8
  %cmp24 = icmp sgt i64 %18, %19
  br i1 %cmp24, label %while.body26, label %while.end

while.body26:                                     ; preds = %while.cond23
  %20 = load i32, ptr %downsample, align 4
  %mul = mul i32 %20, 2
  store i32 %mul, ptr %downsample, align 4
  %21 = load i64, ptr %samplefreq.addr, align 8
  %div = sdiv i64 %21, 2
  store i64 %div, ptr %samplefreq.addr, align 8
  br label %while.cond23, !llvm.loop !7

while.end:                                        ; preds = %while.cond23
  br label %while.body

while.end27:                                      ; preds = %if.then21
  %22 = load ptr, ptr %gainfilter, align 8
  call void @free(ptr noundef %22) #7
  store ptr null, ptr %retval, align 8
  br label %return

return:                                           ; preds = %while.end27, %if.then14, %if.then
  %23 = load ptr, ptr %retval, align 8
  ret ptr %23
}

; Function Attrs: nounwind sspstrong uwtable
define dso_local i32 @ValidGainFrequency(i64 noundef %samplefreq) #0 {
entry:
  %retval = alloca i32, align 4
  %samplefreq.addr = alloca i64, align 8
  %gainfilter = alloca ptr, align 8
  store i64 %samplefreq, ptr %samplefreq.addr, align 8
  %0 = load i64, ptr %samplefreq.addr, align 8
  %call = call ptr @CreateGainFilter(i64 noundef %0)
  store ptr %call, ptr %gainfilter, align 8
  %1 = load ptr, ptr %gainfilter, align 8
  %cmp = icmp eq ptr %1, null
  br i1 %cmp, label %if.then, label %if.else

if.then:                                          ; preds = %entry
  store i32 0, ptr %retval, align 4
  br label %return

if.else:                                          ; preds = %entry
  %2 = load ptr, ptr %gainfilter, align 8
  call void @free(ptr noundef %2) #7
  store i32 1, ptr %retval, align 4
  br label %return

return:                                           ; preds = %if.else, %if.then
  %3 = load i32, ptr %retval, align 4
  ret i32 %3
}