; Function Attrs: nofree norecurse nosync nounwind sspstrong memory(none) uwtable
define dso_local range(i32 0, 2) i32 @ValidGainFrequency(i64 noundef %samplefreq) local_unnamed_addr #0 {
entry:
  br label %while.body.i.outer

while.body.i.outer:                               ; preds = %while.body26.i, %entry
  %samplefreq.addr.0.i.ph = phi i64 [ %samplefreq, %entry ], [ %div16.i, %while.body26.i ]
  %maxrate.0.i.ph = phi i64 [ 0, %entry ], [ %spec.select.i, %while.body26.i ]
  br label %while.body.i

while.body.i:                                     ; preds = %while.body.i.outer, %while.cond23.preheader.i
  %maxrate.0.i = phi i64 [ %spec.select.i, %while.cond23.preheader.i ], [ %maxrate.0.i.ph, %while.body.i.outer ]
  br label %for.body.i

for.body.i:                                       ; preds = %for.inc.i, %while.body.i
  %indvars.iv.i = phi i64 [ 0, %while.body.i ], [ %indvars.iv.next.i, %for.inc.i ]
  %maxrate.120.i = phi i64 [ %maxrate.0.i, %while.body.i ], [ %spec.select.i, %for.inc.i ]
  %arrayidx.i = getelementptr inbounds nuw [13 x %struct.ReplayGainFilter], ptr @ReplayGainFilters, i64 0, i64 %indvars.iv.i
  %0 = load i64, ptr %arrayidx.i, align 16
  %cmp12.i = icmp eq i64 %0, %samplefreq.addr.0.i.ph
  br i1 %cmp12.i, label %return, label %for.inc.i

for.inc.i:                                        ; preds = %for.body.i
  %spec.select.i = tail call i64 @llvm.smax.i64(i64 %maxrate.120.i, i64 %0)
  %indvars.iv.next.i = add nuw nsw i64 %indvars.iv.i, 1
  %exitcond.not.i = icmp eq i64 %indvars.iv.next.i, 13
  br i1 %exitcond.not.i, label %for.end.i, label %for.body.i, !llvm.loop !5

for.end.i:                                        ; preds = %for.inc.i
  %cmp19.i = icmp slt i64 %samplefreq.addr.0.i.ph, %spec.select.i
  br i1 %cmp19.i, label %return, label %while.cond23.preheader.i

while.cond23.preheader.i:                         ; preds = %for.end.i
  %cmp2421.i = icmp sgt i64 %samplefreq.addr.0.i.ph, %spec.select.i
  br i1 %cmp2421.i, label %while.body26.i, label %while.body.i

while.body26.i:                                   ; preds = %while.cond23.preheader.i, %while.body26.i
  %samplefreq.addr.122.i = phi i64 [ %div16.i, %while.body26.i ], [ %samplefreq.addr.0.i.ph, %while.cond23.preheader.i ]
  %div16.i = lshr i64 %samplefreq.addr.122.i, 1
  %cmp24.i = icmp sgt i64 %div16.i, %spec.select.i
  br i1 %cmp24.i, label %while.body26.i, label %while.body.i.outer, !llvm.loop !7

return:                                           ; preds = %for.end.i, %for.body.i
  %retval.0 = phi i32 [ 1, %for.body.i ], [ 0, %for.end.i ]
  ret i32 %retval.0
}